; Function Attrs: mustprogress uwtable
define void @_ZN3gmx8Mdrunner12spawnThreadsEi(ptr noundef nonnull align 8 dereferenceable(400) %0, i32 noundef %1) local_unnamed_addr #10 align 2 personality ptr @__gxx_personality_v0 {
  %3 = alloca %"class.gmx::InternalError", align 8
  %4 = alloca %"class.gmx::ExceptionInitializer", align 8
  %5 = alloca %"class.gmx::ExceptionInfo", align 8
  %6 = tail call noundef i32 @_Z12tMPI_Init_fnii22tMPI_Affinity_strategyPFvPKvES1_(i32 noundef 1, i32 noundef %1, i32 noundef 0, ptr noundef nonnull @_ZN3gmxL17mdrunner_start_fnEPKv, ptr noundef nonnull %0)
  %.not = icmp eq i32 %6, 0
  br i1 %.not, label %18, label %7

7:                                                ; preds = %2
  %8 = tail call ptr @__cxa_allocate_exception(i64 24) #34
  call void @llvm.lifetime.start.p0(i64 56, ptr nonnull %4) #34
  invoke void @_ZN3gmx20ExceptionInitializerC2EPKc(ptr noundef nonnull align 8 dereferenceable(56) %4, ptr noundef nonnull @.str.8)
          to label %9 unwind label %.thread

9:                                                ; preds = %7
  invoke void @_ZN3gmx16GromacsExceptionC2ERKNS_20ExceptionInitializerE(ptr noundef nonnull align 8 dereferenceable(24) %3, ptr noundef nonnull align 8 dereferenceable(56) %4)
          to label %10 unwind label %.thread14

10:                                               ; preds = %9
  store ptr getelementptr inbounds nuw inrange(-16, 32) (i8, ptr @_ZTVN3gmx13InternalErrorE, i64 16), ptr %3, align 8, !tbaa !134
  call void @llvm.lifetime.start.p0(i64 32, ptr nonnull %5) #34
  store ptr getelementptr inbounds nuw inrange(-16, 16) (i8, ptr @_ZTVN3gmx13ExceptionInfoINS_22ExceptionInfoLocation_ENS_13ThrowLocationEEE, i64 16), ptr %5, align 8, !tbaa !134
  %11 = getelementptr inbounds nuw i8, ptr %5, i64 8
  store ptr @__PRETTY_FUNCTION__._ZN3gmx8Mdrunner12spawnThreadsEi, ptr %11, align 8, !tbaa !103
  %.sroa.4.0..sroa_idx = getelementptr inbounds nuw i8, ptr %5, i64 16
  store ptr @.str.9, ptr %.sroa.4.0..sroa_idx, align 8, !tbaa !103
  %.sroa.5.0..sroa_idx = getelementptr inbounds nuw i8, ptr %5, i64 24
  store i32 453, ptr %.sroa.5.0..sroa_idx, align 8, !tbaa !30
  invoke void @_ZN3gmxlsINS_13InternalErrorENS_22ExceptionInfoLocation_ENS_13ThrowLocationEEENSt9enable_ifIXsr3stdE12is_base_of_vINS_16GromacsExceptionET_EES6_E4typeES6_RKNS_13ExceptionInfoIT0_T1_EE(ptr dead_on_unwind writable sret(%"class.gmx::InternalError") align 8 %8, ptr noundef nonnull %3, ptr noundef nonnull align 8 dereferenceable(32) %5)
          to label %12 unwind label %15

12:                                               ; preds = %10
  invoke void @__cxa_throw(ptr %8, ptr nonnull @_ZTIN3gmx13InternalErrorE, ptr nonnull @_ZN3gmx16GromacsExceptionD2Ev) #37
          to label %24 unwind label %15

.thread:                                          ; preds = %7
  %13 = landingpad { ptr, i32 }
          cleanup
  br label %.sink.split

.thread14:                                        ; preds = %9
  %14 = landingpad { ptr, i32 }
          cleanup
  call void @_ZN3gmx20ExceptionInitializerD2Ev(ptr noundef nonnull align 8 dereferenceable(56) %4) #34
  br label %.sink.split

15:                                               ; preds = %10, %12
  %.0 = phi i1 [ false, %12 ], [ true, %10 ]
  %16 = landingpad { ptr, i32 }
          cleanup
  call void @_ZN3gmx8internal14IExceptionInfoD2Ev(ptr noundef nonnull align 8 dereferenceable(32) %5) #34
  call void @llvm.lifetime.end.p0(i64 32, ptr nonnull %5) #34
  call void @_ZN3gmx16GromacsExceptionD2Ev(ptr noundef nonnull align 8 dereferenceable(24) %3) #34
  call void @_ZN3gmx20ExceptionInitializerD2Ev(ptr noundef nonnull align 8 dereferenceable(56) %4) #34
  call void @llvm.lifetime.end.p0(i64 56, ptr nonnull %4) #34
  br i1 %.0, label %17, label %23

.sink.split:                                      ; preds = %.thread, %.thread14
  %.pn.pn13.ph = phi { ptr, i32 } [ %14, %.thread14 ], [ %13, %.thread ]
  call void @llvm.lifetime.end.p0(i64 56, ptr nonnull %4) #34
  br label %17

17:                                               ; preds = %.sink.split, %15
  %.pn.pn13 = phi { ptr, i32 } [ %16, %15 ], [ %.pn.pn13.ph, %.sink.split ]
  call void @__cxa_free_exception(ptr %8) #34
  br label %23

18:                                               ; preds = %2
  %19 = load ptr, ptr @TMPI_COMM_WORLD, align 8, !tbaa !112
  %20 = getelementptr inbounds nuw i8, ptr %0, i64 328
  store ptr %19, ptr %20, align 8, !tbaa !113
  %21 = getelementptr inbounds nuw i8, ptr %0, i64 336
  store ptr %19, ptr %21, align 8, !tbaa !114
  %22 = tail call noundef i32 @_Z12tMPI_BarrierP10tmpi_comm_(ptr noundef %19)
  ret void

23:                                               ; preds = %15, %17
  %.pn.pn12 = phi { ptr, i32 } [ %16, %15 ], [ %.pn.pn13, %17 ]
  resume { ptr, i32 } %.pn.pn12

24:                                               ; preds = %12
  unreachable
}